; Function Attrs: nounwind uwtable
define void @cli_event_int(ptr noundef %0, i32 noundef %1, i64 noundef %2) local_unnamed_addr #5 {
  %.not.i = icmp eq ptr %0, null
  br i1 %.not.i, label %cli_event_error_str.exit, label %4

4:                                                ; preds = %3
  %5 = getelementptr inbounds nuw i8, ptr %0, i64 40
  %6 = load i32, ptr %5, align 8, !tbaa !3
  %.not8.i = icmp ult i32 %1, %6
  br i1 %.not8.i, label %get_event.exit, label %7

7:                                                ; preds = %4
  tail call void (ptr, ...) @cli_warnmsg(ptr noundef nonnull @.str.8, ptr noundef nonnull @.str.18) #14
  %8 = getelementptr inbounds nuw i8, ptr %0, i64 28
  %9 = load i16, ptr %8, align 4
  %10 = lshr i16 %9, 8
  %trunc.i.i.i = trunc nuw i16 %10 to i8
  switch i8 %trunc.i.i.i, label %cli_event_error_str.exit [
    i8 0, label %11
    i8 1, label %16
  ]

11:                                               ; preds = %7
  %12 = getelementptr inbounds nuw i8, ptr %0, i64 16
  store ptr @.str.18, ptr %12, align 8, !tbaa !17
  %13 = getelementptr inbounds nuw i8, ptr %0, i64 24
  %14 = load i32, ptr %13, align 8, !tbaa !18
  %15 = add i32 %14, 1
  store i32 %15, ptr %13, align 8, !tbaa !18
  br label %cli_event_error_str.exit

16:                                               ; preds = %7
  %17 = getelementptr inbounds nuw i8, ptr %0, i64 24
  %18 = load i32, ptr %17, align 8, !tbaa !18
  %19 = shl i32 %18, 3
  %20 = add i32 %19, 8
  %21 = getelementptr inbounds nuw i8, ptr %0, i64 16
  %22 = load ptr, ptr %21, align 8, !tbaa !17
  %23 = zext i32 %20 to i64
  %24 = tail call ptr @cli_safer_realloc(ptr noundef %22, i64 noundef %23) #14
  %.not.i.i.i.i = icmp eq ptr %24, null
  br i1 %.not.i.i.i.i, label %25, label %33

25:                                               ; preds = %16
  %26 = getelementptr inbounds nuw i8, ptr %0, i64 32
  %27 = load i64, ptr %26, align 8, !tbaa !15
  %28 = add i64 %27, %23
  store i64 %28, ptr %26, align 8, !tbaa !15
  %29 = getelementptr inbounds nuw i8, ptr %0, i64 44
  %30 = load i32, ptr %29, align 4, !tbaa !16
  %31 = add i32 %30, 1
  store i32 %31, ptr %29, align 4, !tbaa !16
  %.not6.i.i.i.i.i = icmp eq i32 %20, 0
  br i1 %.not6.i.i.i.i.i, label %cli_event_error_str.exit, label %32

32:                                               ; preds = %25
  tail call void (ptr, ...) @cli_errmsg(ptr noundef nonnull @.str.1, i32 noundef %20) #14
  br label %cli_event_error_str.exit

33:                                               ; preds = %16
  store ptr %24, ptr %21, align 8, !tbaa !17
  %34 = load i32, ptr %17, align 8, !tbaa !18
  %35 = zext i32 %34 to i64
  %36 = getelementptr inbounds nuw %union.ev_val, ptr %24, i64 %35
  store i64 ptrtoint (ptr @.str.18 to i64), ptr %36, align 8, !tbaa !17
  %37 = load i32, ptr %17, align 8, !tbaa !18
  %38 = add i32 %37, 1
  store i32 %38, ptr %17, align 8, !tbaa !18
  br label %cli_event_error_str.exit

get_event.exit:                                   ; preds = %4
  %39 = load ptr, ptr %0, align 8, !tbaa !13
  %40 = zext i32 %1 to i64
  %41 = getelementptr inbounds nuw %struct.cli_event, ptr %39, i64 %40
  %.not = icmp eq ptr %39, null
  br i1 %.not, label %cli_event_error_str.exit, label %42

42:                                               ; preds = %get_event.exit
  %43 = getelementptr inbounds nuw i8, ptr %41, i64 20
  %44 = load i16, ptr %43, align 4
  %45 = and i16 %44, 255
  %.not14 = icmp eq i16 %45, 4
  br i1 %.not14, label %78, label %46

46:                                               ; preds = %42
  tail call void (ptr, ...) @cli_warnmsg(ptr noundef nonnull @.str.8, ptr noundef nonnull @.str.6) #14
  %47 = getelementptr inbounds nuw i8, ptr %0, i64 28
  %48 = load i16, ptr %47, align 4
  %49 = lshr i16 %48, 8
  %trunc.i.i = trunc nuw i16 %49 to i8
  switch i8 %trunc.i.i, label %cli_event_error_str.exit [
    i8 0, label %50
    i8 1, label %55
  ]

50:                                               ; preds = %46
  %51 = getelementptr inbounds nuw i8, ptr %0, i64 16
  store ptr @.str.6, ptr %51, align 8, !tbaa !17
  %52 = getelementptr inbounds nuw i8, ptr %0, i64 24
  %53 = load i32, ptr %52, align 8, !tbaa !18
  %54 = add i32 %53, 1
  store i32 %54, ptr %52, align 8, !tbaa !18
  br label %cli_event_error_str.exit

55:                                               ; preds = %46
  %56 = getelementptr inbounds nuw i8, ptr %0, i64 24
  %57 = load i32, ptr %56, align 8, !tbaa !18
  %58 = shl i32 %57, 3
  %59 = add i32 %58, 8
  %60 = getelementptr inbounds nuw i8, ptr %0, i64 16
  %61 = load ptr, ptr %60, align 8, !tbaa !17
  %62 = zext i32 %59 to i64
  %63 = tail call ptr @cli_safer_realloc(ptr noundef %61, i64 noundef %62) #14
  %.not.i.i.i = icmp eq ptr %63, null
  br i1 %.not.i.i.i, label %64, label %72

64:                                               ; preds = %55
  %65 = getelementptr inbounds nuw i8, ptr %0, i64 32
  %66 = load i64, ptr %65, align 8, !tbaa !15
  %67 = add i64 %66, %62
  store i64 %67, ptr %65, align 8, !tbaa !15
  %68 = getelementptr inbounds nuw i8, ptr %0, i64 44
  %69 = load i32, ptr %68, align 4, !tbaa !16
  %70 = add i32 %69, 1
  store i32 %70, ptr %68, align 4, !tbaa !16
  %.not6.i.i.i.i = icmp eq i32 %59, 0
  br i1 %.not6.i.i.i.i, label %cli_event_error_str.exit, label %71

71:                                               ; preds = %64
  tail call void (ptr, ...) @cli_errmsg(ptr noundef nonnull @.str.1, i32 noundef %59) #14
  br label %cli_event_error_str.exit

72:                                               ; preds = %55
  store ptr %63, ptr %60, align 8, !tbaa !17
  %73 = load i32, ptr %56, align 8, !tbaa !18
  %74 = zext i32 %73 to i64
  %75 = getelementptr inbounds nuw %union.ev_val, ptr %63, i64 %74
  store i64 ptrtoint (ptr @.str.6 to i64), ptr %75, align 8, !tbaa !17
  %76 = load i32, ptr %56, align 8, !tbaa !18
  %77 = add i32 %76, 1
  store i32 %77, ptr %56, align 8, !tbaa !18
  br label %cli_event_error_str.exit

78:                                               ; preds = %42
  %79 = lshr i16 %44, 8
  %trunc = trunc nuw i16 %79 to i8
  switch i8 %trunc, label %cli_event_error_str.exit [
    i8 0, label %80
    i8 2, label %85
    i8 1, label %92
  ]

80:                                               ; preds = %78
  %81 = getelementptr inbounds nuw i8, ptr %41, i64 8
  store i64 %2, ptr %81, align 8, !tbaa !17
  %82 = getelementptr inbounds nuw i8, ptr %41, i64 16
  %83 = load i32, ptr %82, align 8, !tbaa !18
  %84 = add i32 %83, 1
  store i32 %84, ptr %82, align 8, !tbaa !18
  br label %cli_event_error_str.exit

85:                                               ; preds = %78
  %86 = getelementptr inbounds nuw i8, ptr %41, i64 16
  %87 = load i32, ptr %86, align 8, !tbaa !18
  %88 = add i32 %87, 1
  store i32 %88, ptr %86, align 8, !tbaa !18
  %89 = getelementptr inbounds nuw i8, ptr %41, i64 8
  %90 = load i64, ptr %89, align 8, !tbaa !17
  %91 = add i64 %90, %2
  store i64 %91, ptr %89, align 8, !tbaa !17
  br label %cli_event_error_str.exit

92:                                               ; preds = %78
  %93 = getelementptr inbounds nuw i8, ptr %41, i64 16
  %94 = load i32, ptr %93, align 8, !tbaa !18
  %95 = shl i32 %94, 3
  %96 = add i32 %95, 8
  %97 = getelementptr inbounds nuw i8, ptr %41, i64 8
  %98 = load ptr, ptr %97, align 8, !tbaa !17
  %99 = zext i32 %96 to i64
  %100 = tail call ptr @cli_safer_realloc(ptr noundef %98, i64 noundef %99) #14
  %.not.i16 = icmp eq ptr %100, null
  br i1 %.not.i16, label %101, label %109

101:                                              ; preds = %92
  %102 = getelementptr inbounds nuw i8, ptr %0, i64 32
  %103 = load i64, ptr %102, align 8, !tbaa !15
  %104 = add i64 %103, %99
  store i64 %104, ptr %102, align 8, !tbaa !15
  %105 = getelementptr inbounds nuw i8, ptr %0, i64 44
  %106 = load i32, ptr %105, align 4, !tbaa !16
  %107 = add i32 %106, 1
  store i32 %107, ptr %105, align 4, !tbaa !16
  %.not6.i.i = icmp eq i32 %96, 0
  br i1 %.not6.i.i, label %cli_event_error_str.exit, label %108

108:                                              ; preds = %101
  tail call void (ptr, ...) @cli_errmsg(ptr noundef nonnull @.str.1, i32 noundef %96) #14
  br label %cli_event_error_str.exit

109:                                              ; preds = %92
  store ptr %100, ptr %97, align 8, !tbaa !17
  %110 = load i32, ptr %93, align 8, !tbaa !18
  %111 = zext i32 %110 to i64
  %112 = getelementptr inbounds nuw %union.ev_val, ptr %100, i64 %111
  store i64 %2, ptr %112, align 8, !tbaa !17
  %113 = load i32, ptr %93, align 8, !tbaa !18
  %114 = add i32 %113, 1
  store i32 %114, ptr %93, align 8, !tbaa !18
  br label %cli_event_error_str.exit

cli_event_error_str.exit:                         ; preds = %33, %32, %25, %11, %7, %3, %109, %108, %101, %72, %71, %64, %50, %46, %80, %85, %78, %get_event.exit
  ret void
}